((dp0
I0
Vman
p1
sI1
Vsitting
p2
sI2
Vtwo
p3
sI3
Vstanding
p4
sI4
Vpeople
p5
sI5
Vwoman
p6
sI6
Vnext
p7
sI7
Vwhite
p8
sI8
Vtable
p9
sI9
Vstreet
p10
sI10
Vholding
p11
sI11
Vperson
p12
sI12
Vlarge
p13
sI13
Vtop
p14
sI14
Vgroup
p15
sI15
Vplate
p16
sI16
Vfield
p17
sI17
Vdog
p18
sI18
Vsmall
p19
sI19
Vnear
p20
sI20
Vtennis
p21
sI21
Vfront
p22
sI22
Vtrain
p23
sI23
Vblack
p24
sI24
Vroom
p25
sI25
Vcat
p26
sI26
Vriding
p27
sI27
Vsign
p28
sI28
Vred
p29
sI29
Vyoung
p30
sI30
Vwater
p31
sI31
Vbaseball
p32
sI32
Vha
p33
sI33
Vbuilding
p34
sI34
Vbus
p35
sI35
Vwalking
p36
sI36
Vplaying
p37
sI37
Vbathroom
p38
sI38
Vfood
p39
sI39
Vtree
p40
sI40
Vblue
p41
sI41
Vpizza
p42
sI42
Vkitchen
p43
sI43
Vgrass
p44
sI44
Vhorse
p45
sI45
Vgreen
p46
sI46
Vboy
p47
sI47
Vside
p48
sI48
Vgiraffe
p49
sI49
Vbed
p50
sI50
Vparked
p51
sI51
Vplayer
p52
sI52
Vlooking
p53
sI53
Vsnow
p54
sI54
Vball
p55
sI55
Vcar
p56
sI56
Vbeach
p57
sI57
Vcouple
p58
sI58
Vbear
p59
sI59
Velephant
p60
sI60
Vthree
p61
sI61
Vgirl
p62
sI62
Vmen
p63
sI63
Vtoilet
p64
sI64
Vskateboard
p65
sI65
Vclock
p66
sI66
Vgame
p67
sI67
Vflying
p68
sI68
Vcity
p69
sI69
Vroad
p70
sI70
Vstand
p71
sI71
Vpicture
p72
sI72
Vumbrella
p73
sI73
Vwearing
p74
sI74
Vbench
p75
sI75
Vlaptop
p76
sI76
Vmotorcycle
p77
sI77
Vseveral
p78
sI78
Vlaying
p79
sI79
Vchild
p80
sI80
Vzebra
p81
sI81
Vkite
p82
sI82
Vsits
p83
sI83
Vboard
p84
sI84
Vcomputer
p85
sI85
Vski
p86
sI86
Vphone
p87
sI87
Vwooden
p88
sI88
Vcake
p89
sI89
Vsink
p90
sI90
Vone
p91
sI91
Varea
p92
sI92
Vwindow
p93
sI93
Varound
p94
sI94
Vglass
p95
sI95
Vtruck
p96
sI96
Veating
p97
sI97
Vboat
p98
sI98
Vchair
p99
sI99
Vbrown
p100
sI100
Vyellow
p101
sI101
Vwall
p102
sI102
Vfrisbee
p103
sI103
Vbird
p104
sI104
Voutside
p105
sI105
Vliving
p106
sI106
Vair
p107
sI107
Vlight
p108
sI108
Vtrack
p109
sI109
Vdesk
p110
sI110
V's
p111
sI111
Vlot
p112
sI112
Vhand
p113
sI113
Vopen
p114
sI114
Vsurfboard
p115
sI115
Vbanana
p116
sI116
Vcovered
p117
sI117
Vpark
p118
sI118
Vsky
p119
sI119
Vmany
p120
sI120
Vclose
p121
sI121
Vcow
p122
sI122
Vbowl
p123
sI123
Vbehind
p124
sI124
Vold
p125
sI125
Vorange
p126
sI126
Vstop
p127
sI127
Vlittle
p128
sI128
Vfilled
p129
sI129
Vfire
p130
sI130
Vairplane
p131
sI131
Vwave
p132
sI132
Vcourt
p133
sI133
Vcouch
p134
sI134
Vtogether
p135
sI135
Vphoto
p136
sI136
Vplane
p137
sI137
Vbat
p138
sI138
Vflower
p139
sI139
Vsandwich
p140
sI140
Vbunch
p141
sI141
Vback
p142
sI142
Vinside
p143
sI143
Vbackground
p144
sI144
Vsheep
p145
sI145
Vbig
p146
sI146
Vview
p147
sI147
Vmirror
p148
sI148
Vcounter
p149
sI149
Vocean
p150
sI150
Vfloor
p151
sI151
Vcell
p152
sI152
Vhydrant
p153
sI153
Vtraffic
p154
sI154
Vshirt
p155
sI155
Vbike
p156
sI156
Vteddy
p157
sI157
Vfence
p158
sI158
Vracket
p159
sI159
Vanother
p160
sI160
Vanimal
p161
sI161
Vvegetable
p162
sI162
Vsidewalk
p163
sI163
Vlook
p164
sI164
Vpiece
p165
sI165
Vdifferent
p166
sI166
Vfruit
p167
sI167
Vtie
p168
sI168
Vbaby
p169
sI169
Vtall
p170
sI170
Vvase
p171
sI171
Vmountain
p172
sI172
Vparking
p173
sI173
Vground
p174
sI174
Vtower
p175
sI175
Vgrassy
p176
sI176
Vimage
p177
sI177
Vhill
p178
sI178
Vday
p179
sI179
Vslope
p180
sI180
Vwalk
p181
sI181
Vfull
p182
sI182
Vdirt
p183
sI183
Vready
p184
sI184
Valong
p185
sI185
Vmiddle
p186
sI186
Vhead
p187
sI187
Vtrick
p188
sI188
Vpole
p189
sI189
Vskier
p190
sI190
Vstation
p191
sI191
Vhat
p192
sI192
Vsit
p193
sI193
Vdriving
p194
sI194
Vhold
p195
sI195
Vstuffed
p196
sI196
Vsuit
p197
sI197
Vfour
p198
sI198
Vtaking
p199
sI199
Vbox
p200
sI200
Vwine
p201
sI201
Vskate
p202
sI202
Vskiing
p203
sI203
Vwood
p204
sI204
Vacross
p205
sI205
Vbeside
p206
sI206
Vguy
p207
sI207
Vgrazing
p208
sI208
Vdisplay
p209
sI209
Vluggage
p210
sI210
Vrefrigerator
p211
sI211
Vsnowy
p212
sI212
Vbroccoli
p213
sI213
Vlong
p214
sI214
Vwii
p215
sI215
Vdoor
p216
sI216
Vbook
p217
sI217
Vkid
p218
sI218
Vhanging
p219
sI219
Vpink
p220
sI220
Vslice
p221
sI221
Vdouble
p222
sI222
Vherd
p223
sI223
Vpair
p224
sI224
Vcamera
p225
sI225
Vride
p226
sI226
Vpassenger
p227
sI227
Vhot
p228
sI228
Vlady
p229
sI229
Vcutting
p230
sI230
Vcorner
p231
sI231
Vkeyboard
p232
sI232
Vgoing
p233
sI233
Vbicycle
p234
sI234
Vdonut
p235
sI235
Voven
p236
sI236
Vcup
p237
sI237
Vempty
p238
sI238
Vtalking
p239
sI239
Vhit
p240
sI240
Vjumping
p241
sI241
Vtelevision
p242
sI242
Vairport
p243
sI243
Vswinging
p244
sI244
Vwatching
p245
sI245
Vpaper
p246
sI246
Vstove
p247
sI247
Vhouse
p248
sI248
Vsurfer
p249
sI249
Vapple
p250
sI250
Vposing
p251
sI251
Vsmiling
p252
sI252
Vcrowd
p253
sI253
Vbottle
p254
sI254
Vset
p255
sI255
Vsurf
p256
sI256
Vvideo
p257
sI257
Vcolorful
p258
sI258
Vtopped
p259
sI259
Vbag
p260
sI260
Vsuitcase
p261
sI261
Vvarious
p262
sI262
Vtv
p263
sI263
Vsoccer
p264
sI264
Vskateboarder
p265
sI265
Vsnowboard
p266
sI266
Vtraveling
p267
sI267
Vgetting
p268
sI268
Vsomeone
p269
sI269
Vjet
p270
sI270
Vusing
p271
sI271
Vremote
p272
sI272
Vrock
p273
sI273
Vbody
p274
sI274
Vcoffee
p275
sI275
Vplay
p276
sI276
Vline
p277
sI277
Vcheese
p278
sI278
Vitem
p279
sI279
Vface
p280
sI280
Vrunway
p281
sI281
Vmeat
p282
sI282
Vcarrying
p283
sI283
Vwatch
p284
sI284
Vbedroom
p285
sI285
Vbrick
p286
sI286
Vriver
p287
sI287
Vcabinet
p288
sI288
Vrestaurant
p289
sI289
Vsomething
p290
sI290
Vnight
p291
sI291
Vracquet
p292
sI292
Vdrink
p293
sI293
Vwaiting
p294
sI294
Vtray
p295
sI295
Vhome
p296
sI296
Vadult
p297
sI297
Vramp
p298
sI298
Vmale
p299
sI299
Vswing
p300
sI300
Vmetal
p301
sI301
Vcarrot
p302
sI302
Vhigh
p303
sI303
Vshower
p304
sI304
Vcut
p305
sI305
Vdecker
p306
sI306
Vtoy
p307
sI307
Vrunning
p308
sI308
Vrow
p309
sI309
Vbusy
p310
sI310
Vdoughnut
p311
sI311
Vlying
p312
sI312
Vdressed
p313
sI313
Vshelf
p314
sI314
Vmouth
p315
sI315
Vpreparing
p316
sI316
Vscreen
p317
sI317
Vintersection
p318
sI318
Vdish
p319
sI319
Vmonitor
p320
sI320
Vlike
p321
sI321
Vstore
p322
sI322
Vnumber
p323
sI323
Vplant
p324
sI324
Vsurfing
p325
sI325
Vbatter
p326
sI326
Vknife
p327
sI327
Vpulling
p328
sI328
Vjacket
p329
sI329
Vshown
p330
sI330
Vhalf
p331
sI331
Vmade
p332
sI332
Vscissors
p333
sI333
Vgray
p334
sI334
Vvehicle
p335
sI335
Vpile
p336
sI336
Venclosure
p337
sI337
Vzoo
p338
sI338
Vmicrowave
p339
sI339
Vshow
p340
sI340
Vseat
p341
sI341
Vfly
p342
sI342
Vdark
p343
sI343
Vcontroller
p344
sI344
Vway
p345
sI345
Vsurrounded
p346
sI346
Vbridge
p347
sI347
Vsand
p348
sI348
Vmeal
p349
sI349
Vsleeping
p350
sI350
Vmeter
p351
sI351
Vtub
p352
sI352
Vphotograph
p353
sI353
Vshowing
p354
sI354
Vdecorated
p355
sI355
Vpan
p356
sI356
Vsilver
p357
sI357
Vmouse
p358
sI358
Vlake
p359
sI359
Vtake
p360
sI360
Vlined
p361
sI361
Vcolored
p362
sI362
Vforest
p363
sI363
Volder
p364
sI364
Vuniform
p365
sI365
Vbread
p366
sI366
Vpurple
p367
sI367
Vfork
p368
sI368
Vfurniture
p369
sI369
Vjump
p370
sI370
Vblanket
p371
sI371
Vpast
p372
sI372
Vsnowboarder
p373
sI373
Vcatch
p374
sI374
V``
p375
sI375
Vtype
p376
sI376
Vgrey
p377
sI377
Vcloudy
p378
sI378
Voutdoor
p379
sI379
Vthrowing
p380
sI380
Vchocolate
p381
sI381
Vpose
p382
sI382
Vattached
p383
sI383
Vleaf
p384
sI384
Vdisplayed
p385
sI385
Vonto
p386
sI386
Vbranch
p387
sI387
Vcross
p388
sI388
Vleaning
p389
sI389
Vcrossing
p390
sI390
Vcoming
p391
sI391
Vhair
p392
sI392
Vmaking
p393
sI393
Vfemale
p394
sI394
Vdrinking
p395
sI395
Vsalad
p396
sI396
Vdining
p397
sI397
Vscene
p398
sI398
V''
p399
sI399
Vstone
p400
sI400
Vpillow
p401
sI401
Vfry
p402
sI402
Vseen
p403
sI403
Vrail
p404
sI404
Vfoot
p405
sI405
Vhelmet
p406
sI406
Vhitting
p407
sI407
Vlush
p408
sI408
Voffice
p409
sI409
Varm
p410
sI410
Vbasket
p411
sI411
Vlamp
p412
sI412
Vbirthday
p413
sI413
Vstatue
p414
sI414
Vresting
p415
sI415
Vlit
p416
sI416
Vmarket
p417
sI417
Vpainted
p418
sI418
Vtowards
p419
sI419
Vpot
p420
sI420
Vcellphone
p421
sI421
Vcart
p422
sI422
Vrain
p423
sI423
Vsetting
p424
sI424
Vcandle
p425
sI425
Vplastic
p426
sI426
Vsunny
p427
sI427
Vcase
p428
sI428
Vbright
p429
sI429
Vteeth
p430
sI430
Vtowel
p431
sI431
Vclean
p432
sI432
Vworking
p433
sI433
Vcatcher
p434
sI434
Vshot
p435
sI435
Vpublic
p436
sI436
Vtomato
p437
sI437
Vsun
p438
sI438
Vdress
p439
sI439
Vedge
p440
sI440
Vbeautiful
p441
sI441
Vtrying
p442
sI442
Vtime
p443
sI443
Vpolice
p444
sI444
Vmoving
p445
sI445
Vplatform
p446
sI446
Vcontainer
p447
sI447
Vclear
p448
sI448
Vshoe
p449
sI449
Vtoothbrush
p450
sI450
Vstopped
p451
sI451
Vshort
p452
sI452
Vbase
p453
sI453
Vunderneath
p454
sI454
Vbath
p455
sI455
Vsauce
p456
sI456
Vyard
p457
sI457
Vbush
p458
sI458
Vtopping
p459
sI459
Vskateboarding
p460
sI460
Vtile
p461
sI461
Vpitch
p462
sI462
Veat
p463
sI463
Vget
p464
sI464
Vnice
p465
sI465
Vfamily
p466
sI466
Vpath
p467
sI467
Vshop
p468
sI468
Vbrush
p469
sI469
Vplaced
p470
sI470
Vmotor
p471
sI471
Vsmile
p472
sI472
Vvas
p473
sI473
Vsurface
p474
sI474
Vpen
p475
sI475
Vcountry
p476
sI476
Vsandy
p477
sI477
Vrun
p478
sI478
Vpitcher
p479
sI479
Vengine
p480
sI480
Vpassing
p481
sI481
Vshore
p482
sI482
Veaten
p483
sI483
Vtown
p484
sI484
Vpost
p485
sI485
Vappliance
p486
sI486
Vwet
p487
sI487
Vcontrol
p488
sI488
Vdinner
p489
sI489
Vbrushing
p490
sI490
Vleg
p491
sI491
Vperched
p492
sI492
Vcooking
p493
sI493
Vlap
p494
sI494
Vtarmac
p495
sI495
Vvariety
p496
sI496
Vplace
p497
sI497
Vbar
p498
sI498
Vthrow
p499
sI499
Vreading
p500
sI500
Vhotel
p501
sI501
Vwire
p502
sI502
Vnintendo
p503
sI503
Vsingle
p504
sI504
Vend
p505
sI505
Vtrunk
p506
sI506
Vdessert
p507
sI507
Vpotato
p508
sI508
Vmodern
p509
sI509
Vothers
p510
sI510
Vflag
p511
sI511
Venjoying
p512
sI512
Vbeer
p513
sI513
Vtiled
p514
sI514
Vcarriage
p515
sI515
Vdistance
p516
sI516
Vkind
p517
sI517
Vrice
p518
sI518
Vgo
p519
sI519
Vpastry
p520
sI520
Vchicken
p521
sI521
Vperforming
p522
sI522
Vmultiple
p523
sI523
Vgathered
p524
sI524
Vpretty
p525
sI525
Vgear
p526
sI526
Vfive
p527
sI527
Vmounted
p528
sI528
Vsofa
p529
sI529
Vlay
p530
sI530
Vbathtub
p531
sI531
Vcute
p532
sI532
Vfresh
p533
sI533
Vfeeding
p534
sI534
Vhotdog
p535
sI535
Vegg
p536
sI536
Vdrive
p537
sI537
Vneck
p538
sI538
Vpasture
p539
sI539
Vcurb
p540
sI540
Vdirty
p541
sI541
Vcattle
p542
sI542
Vrailroad
p543
sI543
Vleft
p544
sI544
Vcontaining
p545
sI545
Vfenced
p546
sI546
Vmatch
p547
sI547
Vgraffiti
p548
sI548
Vwork
p549
sI549
Vright
p550
sI550
Vrack
p551
sI551
Vcurtain
p552
sI552
Vrider
p553
sI553
Vrest
p554
sI554
Vvintage
p555
sI555
Vteam
p556
sI556
Vconcrete
p557
sI557
Vmake
p558
sI558
Vcenter
p559
sI559
Vdock
p560
sI560
Veye
p561
sI561
Vfireplace
p562
sI562
Vcolor
p563
sI563
Vonion
p564
sI564
Vschool
p565
sI565
Vspoon
p566
sI566
Vcrowded
p567
sI567
Vwell
p568
sI568
Vsteel
p569
sI569
Vpulled
p570
sI570
Vincluding
p571
sI571
Vsliced
p572
sI572
Vsheet
p573
sI573
Vfridge
p574
sI574
Vstriped
p575
sI575
Valone
p576
sI576
Vnearby
p577
sI577
Vglove
p578
sI578
Vhuge
p579
sI579
Vbackpack
p580
sI580
Vspace
p581
sI581
Vflat
p582
sI582
Vpainting
p583
sI583
Vequipment
p584
sI584
Vreaching
p585
sI585
Vdry
p586
sI586
Vserved
p587
sI587
Vclothes
p588
sI588
Vbun
p589
sI589
Vgiant
p590
sI590
Vcatching
p591
sI591
Vfloating
p592
sI592
Vchurch
p593
sI593
Vatop
p594
sI594
Vstyle
p595
sI595
Vpedestrian
p596
sI596
Vmother
p597
sI597
Vputting
p598
sI598
Vobject
p599
sI599
Vshaped
p600
sI600
Vprofessional
p601
sI601
Vtrail
p602
sI602
Vaway
p603
sI603
Vcommercial
p604
sI604
Vserving
p605
sI605
Vstair
p606
sI606
Vtaken
p607
sI607
Vpolar
p608
sI608
Vsquare
p609
sI609
Vcream
p610
sI610
Vstaring
p611
sI611
Vsticking
p612
sI612
Vlone
p613
sI613
Vprepares
p614
sI614
Vbusiness
p615
sI615
Vhay
p616
sI616
Vofficer
p617
sI617
Vwild
p618
sI618
Vsubway
p619
sI619
Vthing
p620
sI620
Vstep
p621
sI621
Vasian
p622
sI622
Vserve
p623
sI623
Vdirection
p624
sI624
Vbreakfast
p625
sI625
Vcement
p626
sI626
Vear
p627
sI627
Vcloud
p628
sI628
Vdevice
p629
sI629
Vchristmas
p630
sI630
Vstall
p631
sI631
Vround
p632
sI632
Vreflection
p633
sI633
Vhighway
p634
sI634
Vfriend
p635
sI635
Vstacked
p636
sI636
Voutdoors
p637
sI637
Vturn
p638
sI638
Vblender
p639
sI639
Vcooked
p640
sI640
Vpool
p641
sI641
Vtoward
p642
sI642
Vwait
p643
sI643
Vboarder
p644
sI644
Vrug
p645
sI645
Vsoup
p646
sI646
Vcluttered
p647
sI647
Vvan
p648
sI648
Vmilitary
p649
sI649
Vfrench
p650
sI650
Vsunglass
p651
sI651
Vgate
p652
sI652
Vumpire
p653
sI653
Vwheel
p654
sI654
Vroll
p655
sI655
Vseated
p656
sI656
Vboarding
p657
sI657
Vdocked
p658
sI658
Vassortment
p659
sI659
Vcoat
p660
sI660
Vlawn
p661
sI661
Vstick
p662
sI662
Vgoat
p663
sI663
Vdesert
p664
sI664
Vlow
p665
sI665
Vscooter
p666
sI666
Vhillside
p667
sI667
Vcover
p668
sI668
Vgarden
p669
sI669
Vswimming
p670
sI670
Vread
p671
sI671
Vsay
p672
sI672
Vpie
p673
sI673
Vtoddler
p674
sI674
Veats
p675
sI675
Vwedding
p676
sI676
Vland
p677
sI677
Vkitten
p678
sI678
Vledge
p679
sI679
Vduck
p680
sI680
Vamong
p681
sI681
Vmid
p682
sI682
Vwooded
p683
sI683
Vdrawn
p684
sI684
Vsignal
p685
sI685
Vshade
p686
sI686
Vdesktop
p687
sI687
Vplain
p688
sI688
Vmachine
p689
sI689
Vhang
p690
sI690
Vrestroom
p691
sI691
Vfacing
p692
sI692
Vtrash
p693
sI693
Vfish
p694
sI694
Vevent
p695
sI695
Vpepper
p696
sI696
Vrocky
p697
sI697
Vbite
p698
sI698
Vrace
p699
sI699
Vdoe
p700
sI700
Vassorted
p701
sI701
Vstainless
p702
sI702
Vceiling
p703
sI703
Vsnowboarding
p704
sI704
Vlanding
p705
sI705
Vbroken
p706
sI706
Vice
p707
sI707
Vcage
p708
sI708
Vtrailer
p709
sI709
Vcloseup
p710
sI710
Vlie
p711
sI711
Vsee
p712
sI712
Vflock
p713
sI713
Vveggie
p714
sI714
Vparty
p715
sI715
Vlunch
p716
sI716
Vurinal
p717
sI717
Vskating
p718
sI718
Vlog
p719
sI719
Vchef
p720
sI720
Vtravel
p721
sI721
Vconstruction
p722
sI722
Vship
p723
sI723
Velectronic
p724
sI724
Vpointing
p725
sI725
Vclosed
p726
sI726
Varranged
p727
sI727
Vkneeling
p728
sI728
Vsunset
p729
sI729
Vrose
p730
sI730
Vcloth
p731
sI731
Voutfit
p732
sI732
Vhole
p733
sI733
Vsale
p734
sI734
Vtan
p735
sI735
Vchip
p736
sI736
Vdecoration
p737
sI737
Vgraze
p738
sI738
Vnew
p739
sI739
Vtied
p740
sI740
Vsail
p741
sI741
Vwide
p742
sI742
Vbeverage
p743
sI743
Voverlooking
p744
sI744
Vbottom
p745
sI745
Vroof
p746
sI746
Vpart
p747
sI747
Vstack
p748
sI748
Vfighter
p749
sI749
Vmessy
p750
sI750
Vnet
p751
sI751
Vtent
p752
sI752
Vantique
p753
sI753
Vpond
p754
sI754
Vworker
p755
sI755
Voverhead
p756
sI756
Vcostume
p757
sI757
Vpepperoni
p758
sI758
Vwalkway
p759
sI759
Vfeature
p760
sI760
Vsea
p761
sI761
Vtour
p762
sI762
Vnarrow
p763
sI763
Vpicnic
p764
sI764
Vurban
p765
sI765
Vpasta
p766
sI766
Vpant
p767
sI767
Vsmoke
p768
sI768
Vcone
p769
sI769
Vleash
p770
sI770
Vdoorway
p771
sI771
Vtransit
p772
sI772
Vforeground
p773
sI773
Vcupcake
p774
sI774
Vfashioned
p775
sI775
Vaction
p776
sI776
Vgood
p777
sI777
Vappears
p778
sI778
Vstructure
p779
sI779
Vfancy
p780
sI780
Vpull
p781
sI781
Vloaded
p782
sI782
Vgold
p783
sI783
Vdoll
p784
sI784
Vclothing
p785
sI785
Vtalk
p786
sI786
Vsausage
p787
sI787
Vcommuter
p788
sI788
Vwa
p789
sI789
Vstill
p790
sI790
Vgrill
p791
sI791
Vwrapped
p792
sI792
Vbean
p793
sI793
Vgiving
p794
sI794
Vnose
p795
sI795
Vbeneath
p796
sI796
Vcap
p797
sI797
Vbaked
p798
sI798
Vpetting
p799
sI799
Vheld
p800
sI800
Vleather
p801
sI801
Vsport
p802
sI802
Vbow
p803
sI803
Vwinter
p804
sI804
Vcontains
p805
sI805
Vmug
p806
sI806
Vpartially
p807
sI807
Vmodel
p808
sI808
Vlift
p809
sI809
Vblurry
p810
sI810
Vsteam
p811
sI811
Vpropeller
p812
sI812
Vleading
p813
sI813
Vpipe
p814
sI814
Vmove
p815
sI815
Vnoodle
p816
sI816
Vpier
p817
sI817
Vrailing
p818
sI818
Vwing
p819
sI819
Vpalm
p820
sI820
Vvanity
p821
sI821
Vsoda
p822
sI822
Vvest
p823
sI823
Vprepared
p824
sI824
Vmushroom
p825
sI825
Vsticker
p826
sI826
Vput
p827
sI827
Vdecorative
p828
sI828
Vapartment
p829
sI829
Vracing
p830
sI830
Vlid
p831
sI831
Vfan
p832
sI832
Velectric
p833
sI833
Vstunt
p834
sI834
Vsix
p835
sI835
Vplatter
p836
sI836
Vpaw
p837
sI837
Vused
p838
sI838
Vbull
p839
sI839
Vopened
p840
sI840
Vlamb
p841
sI841
Vlettuce
p842
sI842
Vshoulder
p843
sI843
Vsize
p844
sI844
Vdeck
p845
sI845
Visland
p846
sI846
Vfarm
p847
sI847
Vresidential
p848
sI848
Vproduce
p849
sI849
Vhard
p850
sI850
Vutensil
p851
sI851
Vpick
p852
sI852
Vrainy
p853
sI853
Vuse
p854
sI854
Vincludes
p855
sI855
Vharbor
p856
sI856
Vreach
p857
sI857
Vflight
p858
sI858
Vmound
p859
sI859
Vripe
p860
sI860
Vshopping
p861
sI861
Vpickle
p862
sI862
Vtiny
p863
sI863
Vtow
p864
sI864
Vseagull
p865
sI865
Vsliding
p866
sI866
Vdesign
p867
sI867
Vstrawberry
p868
sI868
Vwriting
p869
sI869
Vsort
p870
sI870
Vgarage
p871
sI871
Vword
p872
sI872
Vblock
p873
sI873
Vairliner
p874
sI874
Vpurse
p875
sI875
Vupside
p876
sI876
Vwear
p877
sI877
Vketchup
p878
sI878
Vdisc
p879
sI879
Vbarn
p880
sI880
Vlean
p881
sI881
Vpavement
p882
sI882
Vframe
p883
sI883
Vhappy
p884
sI884
Vtooth
p885
sI885
Valongside
p886
sI886
Vjuice
p887
sI887
Vrope
p888
sI888
Vtea
p889
sI889
Vsmart
p890
sI890
Vbrightly
p891
sI891
Vbacon
p892
sI892
Vdresser
p893
sI893
Vsized
p894
sI894
Vname
p895
sI895
Vrural
p896
sI896
Vpersonal
p897
sI897
Vcarry
p898
sI898
Vpatio
p899
sI899
Vdisplaying
p900
sI900
Vsmaller
p901
sI901
Vstuff
p902
sI902
Vstring
p903
sI903
Vlaid
p904
sI904
Vsculpture
p905
sI905
Vaircraft
p906
sI906
Vmitt
p907
sI907
Vcourse
p908
sI908
Vparade
p909
sI909
Vgas
p910
sI910
Vcarpet
p911
sI911
Vtouching
p912
sI912
Vwind
p913
sI913
Vfrosting
p914
sI914
Venclosed
p915
sI915
Vclose-up
p916
sI916
Vturned
p917
sI917
Vshape
p918
sI918
Vjar
p919
sI919
Vloading
p920
sI920
Vsweater
p921
sI921
Vfun
p922
sI922
Vapproaching
p923
sI923
Vbucket
p924
sI924
Vdeep
p925
sI925
Vchain
p926
sI926
Vkicking
p927
sI927
Vmustard
p928
sI928
Vsill
p929
sI929
Vattempting
p930
sI930
Vlemon
p931
sI931
Vtank
p932
sI932
Vindividual
p933
sI933
Vgrowing
p934
sI934
Vtelephone
p935
sI935
Vpuppy
p936
sI936
Vamerican
p937
sI937
Vmilk
p938
sI938
Vwritten
p939
sI939
Vbeige
p940
sI940
Vformation
p941
sI941
Vdriver
p942
sI942
Vhandle
p943
sI943
Vsailing
p944
sI944
Vcrosswalk
p945
sI945
Vus
p946
sI946
Vrelaxing
p947
sI947
Vpickup
p948
sI948
Vrear
p949
sI949
Vjetliner
p950
sI950
Vguitar
p951
sI951
Vfake
p952
sI952
Vmissing
p953
sI953
Vwagon
p954
sI954
Vspectator
p955
sI955
Velderly
p956
sI956
Vjean
p957
sI957
Vfried
p958
sI958
Vterminal
p959
sI959
Vpoint
p960
sI960
Vornate
p961
sI961
Vspeed
p962
sI962
Vindoor
p963
sI963
Vmuseum
p964
sI964
Vpaddle
p965
sI965
Vholder
p966
sI966
Vrolling
p967
sI967
Vtail
p968
sI968
Vcollection
p969
sI969
Vsailboat
p970
sI970
Vroadway
p971
sI971
Vpower
p972
sI972
Vmotorcyclist
p973
sI973
Volive
p974
sI974
Vfalling
p975
sI975
Vart
p976
sI976
Vsupply
p977
sI977
Vflip
p978
sI978
Vtool
p979
sI979
Vpass
p980
sI980
Vlocomotive
p981
sI981
Vstool
p982
sI982
Vpaint
p983
sI983
Vneatly
p984
sI984
Vsiting
p985
sI985
Vsleep
p986
sI986
Vtag
p987
sI987
Vpacked
p988
sI988
Vshirtless
p989
sI989
Vperforms
p990
sI990
Vsnack
p991
sI991
Vpaved
p992
sI992
Vbuilt
p993
sI993
Vgather
p994
sI994
Vspread
p995
sI995
Vtoast
p996
sI996
Vposted
p997
sI997
V2
p998
sI998
Vpracticing
p999
sI999
Vpet
p1000
s(dp1001
g468
I467
sg725
I724
sg806
I805
sg839
I838
sg101
I100
sg198
I197
sg974
I973
sg202
I201
sg986
I985
sg622
I621
sg203
I202
sg319
I318
sg99
I98
sg900
I899
sg938
I937
sg309
I308
sg584
I583
sg528
I527
sg926
I925
sg263
I262
sg546
I545
sg30
I29
sg993
I992
sg981
I980
sg968
I967
sg156
I155
sg472
I471
sg512
I511
sg971
I970
sg100
I99
sg6
I5
sg669
I668
sg2
I1
sg507
I506
sg371
I370
sg757
I756
sg752
I751
sg132
I131
sg566
I565
sg598
I597
sg427
I426
sg678
I677
sg932
I931
sg395
I394
sg562
I561
sg832
I831
sg891
I890
sg565
I564
sg973
I972
sg88
I87
sg79
I78
sg378
I377
sg914
I913
sg13
I12
sg279
I278
sg348
I347
sg699
I698
sg619
I618
sg556
I555
sg19
I18
sg163
I162
sg551
I550
sg920
I919
sg449
I448
sg797
I796
sg234
I233
sg158
I157
sg889
I888
sg219
I218
sg892
I891
sg28
I27
sg370
I369
sg519
I518
sg10
I9
sg257
I256
sg267
I266
sg980
I979
sg478
I477
sg41
I40
sg888
I887
sg787
I786
sg972
I971
sg66
I65
sg794
I793
sg438
I437
sg493
I492
sg982
I981
sg965
I964
sg365
I364
sg152
I151
sg294
I293
sg851
I850
sg739
I738
sg751
I750
sg639
I638
sg830
I829
sg104
I103
sg129
I128
sg274
I273
sg182
I181
sg491
I490
sg524
I523
sg63
I62
sg604
I603
sg650
I649
sg223
I222
sg31
I30
sg922
I921
sg534
I533
sg32
I31
sg90
I89
sg393
I392
sg576
I575
sg467
I466
sg185
I184
sg778
I777
sg643
I642
sg200
I199
sg47
I46
sg362
I361
sg210
I209
sg697
I696
sg243
I242
sg768
I767
sg852
I851
sg776
I775
sg649
I648
sg763
I762
sg401
I400
sg834
I833
sg612
I611
sg488
I487
sg250
I249
sg466
I465
sg772
I771
sg539
I538
sg215
I214
sg572
I571
sg266
I265
sg471
I470
sg680
I679
sg517
I516
sg417
I416
sg4
I3
sg854
I853
sg561
I560
sg433
I432
sg911
I910
sg921
I920
sg805
I804
sg3
I2
sg7
I6
sg204
I203
sg756
I755
sg335
I334
sg607
I606
sg376
I375
sg688
I687
sg870
I869
sg582
I581
sg375
I374
sg216
I215
sg895
I894
sg875
I874
sg381
I380
sg87
I86
sg511
I510
sg283
I282
sg297
I296
sg647
I646
sg169
I168
sg733
I732
sg195
I194
sg342
I341
sg791
I790
sg872
I871
sg25
I24
sg396
I395
sg52
I51
sg56
I55
sg226
I225
sg549
I548
sg985
I984
sg746
I745
sg26
I25
sg306
I305
sg235
I234
sg987
I986
sg934
I933
sg251
I250
sg865
I864
sg299
I298
sg862
I861
sg441
I440
sg176
I175
sg736
I735
sg646
I645
sg303
I302
sg302
I301
sg328
I327
sg290
I289
sg950
I949
sg754
I753
sg131
I130
sg439
I438
sg735
I734
sg903
I902
sg220
I219
sg579
I578
sg835
I834
sg133
I132
sg804
I803
sg193
I192
sg785
I784
sg721
I720
sg464
I463
sg760
I759
sg689
I688
sg228
I227
sg363
I362
sg161
I160
sg60
I59
sg461
I460
sg652
I651
sg674
I673
sg57
I56
sg663
I662
sg42
I41
sg841
I840
sg324
I323
sg140
I139
sg779
I778
sg127
I126
sg822
I821
sg545
I544
sg740
I739
sg717
I716
sg241
I240
sg530
I529
sg391
I390
sg505
I504
sg171
I170
sg494
I493
sg1
I0
sg437
I436
sg916
I915
sg325
I324
sg538
I537
sg567
I566
sg108
I107
sg720
I719
sg149
I148
sg675
I674
sg482
I481
sg873
I872
sg96
I95
sg616
I615
sg686
I685
sg970
I969
sg411
I410
sg170
I169
sg361
I360
sg536
I535
sg37
I36
sg786
I785
sg201
I200
sg532
I531
sg605
I604
sg409
I408
sg767
I766
sg642
I641
sg385
I384
sg351
I350
sg800
I799
sg246
I245
sg571
I570
sg77
I76
sg236
I235
sg232
I231
sg252
I251
sg790
I789
sg141
I140
sg595
I594
sg961
I960
sg15
I14
sg320
I319
sg633
I632
sg897
I896
sg442
I441
sg734
I733
sg412
I411
sg869
I868
sg446
I445
sg93
I92
sg876
I875
sg126
I125
sg117
I116
sg264
I263
sg456
I455
sg275
I274
sg269
I268
sg39
I38
sg784
I783
sg683
I682
sg602
I601
sg398
I397
sg454
I453
sg560
I559
sg49
I48
sg331
I330
sg22
I21
sg708
I707
sg179
I178
sg366
I365
sg954
I953
sg282
I281
sg887
I886
sg856
I855
sg1000
I999
sg451
I450
sg273
I272
sg390
I389
sg796
I795
sg295
I294
sg48
I47
sg709
I708
sg609
I608
sg817
I816
sg878
I877
sg248
I247
sg694
I693
sg850
I849
sg838
I837
sg591
I590
sg81
I80
sg62
I61
sg337
I336
sg477
I476
sg106
I105
sg330
I329
sg139
I138
sg447
I446
sg840
I839
sg194
I193
sg581
I580
sg724
I723
sg346
I345
sg53
I52
sg847
I846
sg904
I903
sg940
I939
sg178
I177
sg990
I989
sg866
I865
sg29
I28
sg773
I772
sg73
I72
sg183
I182
sg690
I689
sg128
I127
sg422
I421
sg738
I737
sg453
I452
sg941
I940
sg626
I625
sg827
I826
sg542
I541
sg207
I206
sg457
I456
sg65
I64
sg632
I631
sg620
I619
sg937
I936
sg137
I136
sg497
I496
sg758
I757
sg300
I299
sg704
I703
sg588
I587
sg386
I385
sg698
I697
sg357
I356
sg278
I277
sg68
I67
sg323
I322
sg780
I779
sg91
I90
sg842
I841
sg901
I900
sg160
I159
sg898
I897
sg333
I332
sg114
I113
sg844
I843
sg145
I144
sg69
I68
sg45
I44
sg307
I306
sg573
I572
sg153
I152
sg270
I269
sg813
I812
sg14
I13
sg864
I863
sg426
I425
sg983
I982
sg770
I769
sg191
I190
sg196
I195
sg792
I791
sg8
I7
sg116
I115
sg322
I321
sg992
I991
sg765
I764
sg703
I702
sg345
I344
sg967
I966
sg884
I883
sg314
I313
sg979
I978
sg501
I500
sg118
I117
sg879
I878
sg452
I451
sg966
I965
sg559
I558
sg569
I568
sg372
I371
sg242
I241
sg947
I946
sg944
I943
sg885
I884
sg222
I221
sg40
I39
sg377
I376
sg50
I49
sg304
I303
sg631
I630
sg635
I634
sg637
I636
sg867
I866
sg476
I475
sg905
I904
sg915
I914
sg347
I346
sg658
I657
sg460
I459
sg917
I916
sg912
I911
sg239
I238
sg672
I671
sg548
I547
sg520
I519
sg403
I402
sg625
I624
sg638
I637
sg923
I922
sg526
I525
sg831
I830
sg172
I171
sg828
I827
sg557
I556
sg54
I53
sg338
I337
sg416
I415
sg397
I396
sg440
I439
sg360
I359
sg46
I45
sg553
I552
sg256
I255
sg276
I275
sg419
I418
sg523
I522
sg833
I832
sg109
I108
sg623
I622
sg599
I598
sg857
I856
sg315
I314
sg483
I482
sg224
I223
sg957
I956
sg211
I210
sg421
I420
sg661
I660
sg570
I569
sg448
I447
sg930
I929
sg301
I300
sg18
I17
sg280
I279
sg814
I813
sg722
I721
sg729
I728
sg899
I898
sg432
I431
sg958
I957
sg601
I600
sg544
I543
sg583
I582
sg312
I311
sg180
I179
sg36
I35
sg435
I434
sg82
I81
sg783
I782
sg340
I339
sg247
I246
sg759
I758
sg667
I666
sg429
I428
sg51
I50
sg285
I284
sg492
I491
sg231
I230
sg521
I520
sg514
I513
sg174
I173
sg996
I995
sg495
I494
sg590
I589
sg310
I309
sg606
I605
sg924
I923
sg666
I665
sg845
I844
sg919
I918
sg124
I123
sg463
I462
sg959
I958
sg458
I457
sg233
I232
sg24
I23
sg525
I524
sg27
I26
sg518
I517
sg74
I73
sg16
I15
sg815
I814
sg240
I239
sg258
I257
sg245
I244
sg284
I283
sg353
I352
sg59
I58
sg586
I585
sg326
I325
sg316
I315
sg676
I675
sg998
I997
sg575
I574
sg929
I928
sg975
I974
sg334
I333
sg138
I137
sg434
I433
sg498
I497
sg908
I907
sg801
I800
sg644
I643
sg436
I435
sg260
I259
sg902
I901
sg287
I286
sg811
I810
sg147
I146
sg255
I254
sg764
I763
sg380
I379
sg486
I485
sg883
I882
sg462
I461
sg341
I340
sg712
I711
sg85
I84
sg656
I655
sg761
I760
sg173
I172
sg159
I158
sg121
I120
sg748
I747
sg802
I801
sg410
I409
sg988
I987
sg880
I879
sg502
I501
sg868
I867
sg603
I602
sg741
I740
sg728
I727
sg105
I104
sg262
I261
sg726
I725
sg684
I683
sg945
I944
sg500
I499
sg205
I204
sg742
I741
sg789
I788
sg953
I952
sg317
I316
sg732
I731
sg450
I449
sg927
I926
sg906
I905
sg849
I848
sg877
I876
sg781
I780
sg444
I443
sg352
I351
sg249
I248
sg43
I42
sg951
I950
sg44
I43
sg122
I121
sg289
I288
sg120
I119
sg199
I198
sg298
I297
sg691
I690
sg762
I761
sg810
I809
sg848
I847
sg969
I968
sg481
I480
sg580
I579
sg577
I576
sg681
I680
sg64
I63
sg102
I101
sg420
I419
sg506
I505
sg181
I180
sg896
I895
sg189
I188
sg939
I938
sg593
I592
sg9
I8
sg687
I686
sg208
I207
sg98
I97
sg38
I37
sg157
I156
sg874
I873
sg61
I60
sg863
I862
sg407
I406
sg513
I512
sg995
I994
sg552
I551
sg286
I285
sg611
I610
sg238
I237
sg480
I479
sg415
I414
sg624
I623
sg509
I508
sg858
I857
sg788
I787
sg701
I700
sg130
I129
sg771
I770
sg755
I754
sg344
I343
sg809
I808
sg707
I706
sg80
I79
sg374
I373
sg942
I941
sg428
I427
sg636
I635
sg164
I163
sg596
I595
sg192
I191
sg281
I280
sg107
I106
sg188
I187
sg20
I19
sg890
I889
sg389
I388
sg618
I617
sg859
I858
sg531
I530
sg977
I976
sg991
I990
sg823
I822
sg860
I859
sg948
I947
sg826
I825
sg408
I407
sg935
I934
sg474
I473
sg350
I349
sg737
I736
sg186
I185
sg777
I776
sg769
I768
sg244
I243
sg184
I183
sg83
I82
sg358
I357
sg723
I722
sg406
I405
sg166
I165
sg155
I154
sg837
I836
sg555
I554
sg558
I557
sg123
I122
sg388
I387
sg206
I205
sg162
I161
sg715
I714
sg78
I77
sg354
I353
sg356
I355
sg654
I653
sg55
I54
sg711
I710
sg293
I292
sg404
I403
sg423
I422
sg113
I112
sg308
I307
sg167
I166
sg445
I444
sg414
I413
sg931
I930
sg659
I658
sg774
I773
sg213
I212
sg782
I781
sg218
I217
sg997
I996
sg816
I815
sg115
I114
sg364
I363
sg496
I495
sg568
I567
sg150
I149
sg12
I11
sg230
I229
sg254
I253
sg597
I596
sg527
I526
sg808
I807
sg535
I534
sg379
I378
sg136
I135
sg76
I75
sg413
I412
sg682
I681
sg405
I404
sg918
I917
sg747
I746
sg554
I553
sg134
I133
sg962
I961
sg543
I542
sg459
I458
sg608
I607
sg305
I304
sg373
I372
sg237
I236
sg730
I729
sg960
I959
sg119
I118
sg359
I358
sg75
I74
sg563
I562
sg424
I423
sg336
I335
sg84
I83
sg487
I486
sg821
I820
sg86
I85
sg547
I546
sg190
I189
sg843
I842
sg94
I93
sg671
I670
sg146
I145
sg58
I57
sg574
I573
sg803
I802
sg343
I342
sg67
I66
sg154
I153
sg144
I143
sg110
I109
sg812
I811
sg271
I270
sg311
I310
sg318
I317
sg229
I228
sg949
I948
sg369
I368
sg418
I417
sg936
I935
sg431
I430
sg321
I320
sg564
I563
sg600
I599
sg529
I528
sg685
I684
sg522
I521
sg578
I577
sg692
I691
sg871
I870
sg882
I881
sg617
I616
sg291
I290
sg587
I586
sg175
I174
sg893
I892
sg753
I752
sg550
I549
sg125
I124
sg909
I908
sg253
I252
sg5
I4
sg952
I951
sg142
I141
sg956
I955
sg392
I391
sg820
I819
sg148
I147
sg296
I295
sg894
I893
sg221
I220
sg384
I383
sg745
I744
sg367
I366
sg627
I626
sg881
I880
sg339
I338
sg475
I474
sg628
I627
sg818
I817
sg265
I264
sg630
I629
sg327
I326
sg795
I794
sg696
I695
sg984
I983
sg97
I96
sg615
I614
sg585
I584
sg955
I954
sg907
I906
sg382
I381
sg645
I644
sg706
I705
sg621
I620
sg766
I765
sg485
I484
sg855
I854
sg499
I498
sg634
I633
sg710
I709
sg400
I399
sg268
I267
sg846
I845
sg349
I348
sg489
I488
sg71
I70
sg793
I792
sg70
I69
sg670
I669
sg651
I650
sg177
I176
sg455
I454
sg629
I628
sg943
I942
sg469
I468
sg394
I393
sg799
I798
sg292
I291
sg976
I975
sg648
I647
sg719
I718
sg92
I91
sg702
I701
sg964
I963
sg21
I20
sg613
I612
sg214
I213
sg963
I962
sg225
I224
sg665
I664
sg112
I111
sg197
I196
sg473
I472
sg743
I742
sg368
I367
sg187
I186
sg212
I211
sg35
I34
sg594
I593
sg479
I478
sg705
I704
sg288
I287
sg731
I730
sg677
I676
sg589
I588
sg387
I386
sg749
I748
sg277
I276
sg33
I32
sg402
I401
sg807
I806
sg657
I656
sg332
I331
sg727
I726
sg143
I142
sg508
I507
sg383
I382
sg978
I977
sg946
I945
sg470
I469
sg515
I514
sg999
I998
sg541
I540
sg261
I260
sg89
I88
sg165
I164
sg209
I208
sg516
I515
sg718
I717
sg227
I226
sg994
I993
sg668
I667
sg653
I652
sg673
I672
sg925
I924
sg537
I536
sg399
I398
sg504
I503
sg540
I539
sg775
I774
sg425
I424
sg861
I860
sg592
I591
sg700
I699
sg713
I712
sg610
I609
sg829
I828
sg853
I852
sg714
I713
sg825
I824
sg151
I150
sg313
I312
sg933
I932
sg259
I258
sg695
I694
sg17
I16
sg217
I216
sg11
I10
sg750
I749
sg168
I167
sg693
I692
sg655
I654
sg465
I464
sg490
I489
sg72
I71
sg103
I102
sg111
I110
sg928
I927
sg819
I818
sg910
I909
sg443
I442
sg824
I823
sg484
I483
sg716
I715
sg503
I502
sg614
I613
sg913
I912
sg355
I354
sg664
I663
sg641
I640
sg34
I33
sg660
I659
sg272
I271
sg744
I743
sg95
I94
sg679
I678
sg886
I885
sg135
I134
sg329
I328
sg640
I639
sg23
I22
sg430
I429
sg533
I532
sg836
I835
sg798
I797
sg989
I988
sg510
I509
sg662
I661
s(dp1002
I0
I51677
sI1
I36823
sI2
I34096
sI3
I30060
sI4
I29685
sI5
I27796
sI6
I25916
sI7
I25400
sI8
I22237
sI9
I21500
sI10
I19435
sI11
I17714
sI12
I17179
sI13
I15712
sI14
I15355
sI15
I14911
sI16
I14704
sI17
I14494
sI18
I14128
sI19
I13714
sI20
I13652
sI21
I13544
sI22
I13486
sI23
I13396
sI24
I12975
sI25
I12774
sI26
I12672
sI27
I12398
sI28
I12084
sI29
I11952
sI30
I11755
sI31
I11410
sI32
I10604
sI33
I10591
sI34
I10397
sI35
I10327
sI36
I10257
sI37
I10128
sI38
I9944
sI39
I9884
sI40
I9578
sI41
I9531
sI42
I9368
sI43
I9276
sI44
I9176
sI45
I8996
sI46
I8938
sI47
I8932
sI48
I8925
sI49
I8876
sI50
I8775
sI51
I8653
sI52
I8348
sI53
I8325
sI54
I8226
sI55
I8189
sI56
I7956
sI57
I7872
sI58
I7860
sI59
I7797
sI60
I7778
sI61
I7753
sI62
I7695
sI63
I7649
sI64
I7585
sI65
I7345
sI66
I7309
sI67
I7289
sI68
I7232
sI69
I7148
sI70
I7133
sI71
I7067
sI72
I7044
sI73
I6938
sI74
I6790
sI75
I6762
sI76
I6714
sI77
I6619
sI78
I6602
sI79
I6597
sI80
I6549
sI81
I6443
sI82
I6425
sI83
I6421
sI84
I6418
sI85
I6375
sI86
I6365
sI87
I6332
sI88
I6329
sI89
I6209
sI90
I6160
sI91
I6144
sI92
I6104
sI93
I6079
sI94
I6056
sI95
I6029
sI96
I5973
sI97
I5897
sI98
I5890
sI99
I5841
sI100
I5807
sI101
I5796
sI102
I5715
sI103
I5531
sI104
I5443
sI105
I5439
sI106
I5413
sI107
I5402
sI108
I5298
sI109
I5239
sI110
I5105
sI111
I5075
sI112
I4964
sI113
I4959
sI114
I4889
sI115
I4877
sI116
I4874
sI117
I4831
sI118
I4822
sI119
I4818
sI120
I4813
sI121
I4769
sI122
I4699
sI123
I4674
sI124
I4659
sI125
I4595
sI126
I4560
sI127
I4528
sI128
I4500
sI129
I4478
sI130
I4441
sI131
I4393
sI132
I4371
sI133
I4321
sI134
I4317
sI135
I4307
sI136
I4210
sI137
I4209
sI138
I4179
sI139
I4124
sI140
I4080
sI141
I4054
sI142
I4000
sI143
I3999
sI144
I3977
sI145
I3858
sI146
I3798
sI147
I3789
sI148
I3754
sI149
I3745
sI150
I3705
sI151
I3684
sI152
I3667
sI153
I3663
sI154
I3659
sI155
I3609
sI156
I3594
sI157
I3594
sI158
I3549
sI159
I3508
sI160
I3472
sI161
I3436
sI162
I3374
sI163
I3370
sI164
I3356
sI165
I3356
sI166
I3330
sI167
I3310
sI168
I3276
sI169
I3253
sI170
I3225
sI171
I3196
sI172
I3177
sI173
I3092
sI174
I3038
sI175
I3030
sI176
I3015
sI177
I3003
sI178
I2947
sI179
I2925
sI180
I2900
sI181
I2888
sI182
I2880
sI183
I2880
sI184
I2878
sI185
I2870
sI186
I2867
sI187
I2827
sI188
I2812
sI189
I2796
sI190
I2728
sI191
I2722
sI192
I2720
sI193
I2712
sI194
I2686
sI195
I2679
sI196
I2667
sI197
I2653
sI198
I2649
sI199
I2612
sI200
I2604
sI201
I2597
sI202
I2571
sI203
I2538
sI204
I2523
sI205
I2515
sI206
I2514
sI207
I2508
sI208
I2508
sI209
I2479
sI210
I2466
sI211
I2447
sI212
I2440
sI213
I2433
sI214
I2423
sI215
I2420
sI216
I2391
sI217
I2376
sI218
I2333
sI219
I2330
sI220
I2313
sI221
I2295
sI222
I2292
sI223
I2275
sI224
I2274
sI225
I2256
sI226
I2251
sI227
I2221
sI228
I2217
sI229
I2214
sI230
I2198
sI231
I2183
sI232
I2182
sI233
I2170
sI234
I2167
sI235
I2166
sI236
I2153
sI237
I2148
sI238
I2146
sI239
I2122
sI240
I2112
sI241
I2108
sI242
I2100
sI243
I2098
sI244
I2097
sI245
I2075
sI246
I2073
sI247
I2071
sI248
I2059
sI249
I2052
sI250
I2041
sI251
I2038
sI252
I2022
sI253
I2013
sI254
I2010
sI255
I2004
sI256
I1996
sI257
I1992
sI258
I1976
sI259
I1976
sI260
I1970
sI261
I1967
sI262
I1966
sI263
I1965
sI264
I1964
sI265
I1961
sI266
I1959
sI267
I1949
sI268
I1943
sI269
I1932
sI270
I1900
sI271
I1896
sI272
I1892
sI273
I1873
sI274
I1843
sI275
I1830
sI276
I1808
sI277
I1802
sI278
I1801
sI279
I1787
sI280
I1780
sI281
I1767
sI282
I1764
sI283
I1738
sI284
I1732
sI285
I1732
sI286
I1727
sI287
I1724
sI288
I1713
sI289
I1709
sI290
I1708
sI291
I1703
sI292
I1701
sI293
I1700
sI294
I1700
sI295
I1692
sI296
I1661
sI297
I1660
sI298
I1650
sI299
I1642
sI300
I1633
sI301
I1623
sI302
I1609
sI303
I1604
sI304
I1583
sI305
I1579
sI306
I1562
sI307
I1551
sI308
I1526
sI309
I1524
sI310
I1518
sI311
I1499
sI312
I1488
sI313
I1486
sI314
I1478
sI315
I1472
sI316
I1462
sI317
I1458
sI318
I1455
sI319
I1451
sI320
I1451
sI321
I1433
sI322
I1430
sI323
I1430
sI324
I1427
sI325
I1409
sI326
I1407
sI327
I1400
sI328
I1383
sI329
I1382
sI330
I1365
sI331
I1364
sI332
I1361
sI333
I1354
sI334
I1342
sI335
I1332
sI336
I1321
sI337
I1319
sI338
I1319
sI339
I1316
sI340
I1310
sI341
I1308
sI342
I1300
sI343
I1294
sI344
I1293
sI345
I1289
sI346
I1287
sI347
I1280
sI348
I1273
sI349
I1270
sI350
I1266
sI351
I1254
sI352
I1246
sI353
I1241
sI354
I1232
sI355
I1231
sI356
I1228
sI357
I1222
sI358
I1219
sI359
I1218
sI360
I1207
sI361
I1206
sI362
I1204
sI363
I1194
sI364
I1193
sI365
I1178
sI366
I1177
sI367
I1165
sI368
I1164
sI369
I1159
sI370
I1151
sI371
I1141
sI372
I1141
sI373
I1140
sI374
I1137
sI375
I1137
sI376
I1126
sI377
I1121
sI378
I1110
sI379
I1104
sI380
I1102
sI381
I1098
sI382
I1090
sI383
I1090
sI384
I1084
sI385
I1080
sI386
I1079
sI387
I1075
sI388
I1071
sI389
I1071
sI390
I1071
sI391
I1071
sI392
I1066
sI393
I1065
sI394
I1062
sI395
I1057
sI396
I1056
sI397
I1053
sI398
I1052
sI399
I1028
sI400
I1026
sI401
I1025
sI402
I1024
sI403
I1024
sI404
I1023
sI405
I1020
sI406
I1015
sI407
I1005
sI408
I1004
sI409
I1003
sI410
I1002
sI411
I999
sI412
I996
sI413
I993
sI414
I990
sI415
I990
sI416
I983
sI417
I981
sI418
I975
sI419
I970
sI420
I965
sI421
I963
sI422
I962
sI423
I957
sI424
I953
sI425
I951
sI426
I939
sI427
I938
sI428
I932
sI429
I930
sI430
I929
sI431
I923
sI432
I921
sI433
I918
sI434
I917
sI435
I914
sI436
I909
sI437
I909
sI438
I908
sI439
I902
sI440
I898
sI441
I897
sI442
I895
sI443
I893
sI444
I887
sI445
I883
sI446
I881
sI447
I880
sI448
I879
sI449
I871
sI450
I870
sI451
I869
sI452
I867
sI453
I866
sI454
I855
sI455
I854
sI456
I851
sI457
I849
sI458
I847
sI459
I840
sI460
I833
sI461
I832
sI462
I829
sI463
I823
sI464
I820
sI465
I811
sI466
I811
sI467
I810
sI468
I804
sI469
I803
sI470
I802
sI471
I801
sI472
I800
sI473
I798
sI474
I798
sI475
I796
sI476
I793
sI477
I792
sI478
I789
sI479
I789
sI480
I788
sI481
I788
sI482
I781
sI483
I781
sI484
I777
sI485
I775
sI486
I774
sI487
I774
sI488
I774
sI489
I773
sI490
I770
sI491
I769
sI492
I766
sI493
I765
sI494
I765
sI495
I764
sI496
I764
sI497
I759
sI498
I756
sI499
I755
sI500
I753
sI501
I748
sI502
I744
sI503
I741
sI504
I739
sI505
I736
sI506
I736
sI507
I734
sI508
I733
sI509
I733
sI510
I733
sI511
I731
sI512
I728
sI513
I726
sI514
I725
sI515
I724
sI516
I723
sI517
I721
sI518
I719
sI519
I713
sI520
I707
sI521
I706
sI522
I706
sI523
I702
sI524
I701
sI525
I699
sI526
I696
sI527
I696
sI528
I695
sI529
I691
sI530
I691
sI531
I687
sI532
I686
sI533
I680
sI534
I679
sI535
I678
sI536
I677
sI537
I677
sI538
I674
sI539
I667
sI540
I665
sI541
I660
sI542
I660
sI543
I658
sI544
I654
sI545
I652
sI546
I651
sI547
I650
sI548
I648
sI549
I646
sI550
I646
sI551
I643
sI552
I643
sI553
I641
sI554
I637
sI555
I636
sI556
I633
sI557
I632
sI558
I632
sI559
I631
sI560
I629
sI561
I627
sI562
I624
sI563
I622
sI564
I622
sI565
I622
sI566
I613
sI567
I609
sI568
I606
sI569
I605
sI570
I605
sI571
I605
sI572
I603
sI573
I601
sI574
I599
sI575
I590
sI576
I590
sI577
I590
sI578
I588
sI579
I584
sI580
I583
sI581
I581
sI582
I578
sI583
I577
sI584
I577
sI585
I575
sI586
I575
sI587
I574
sI588
I574
sI589
I571
sI590
I569
sI591
I567
sI592
I565
sI593
I563
sI594
I560
sI595
I559
sI596
I559
sI597
I556
sI598
I555
sI599
I551
sI600
I550
sI601
I550
sI602
I549
sI603
I548
sI604
I547
sI605
I547
sI606
I546
sI607
I543
sI608
I542
sI609
I540
sI610
I537
sI611
I536
sI612
I533
sI613
I532
sI614
I531
sI615
I529
sI616
I529
sI617
I528
sI618
I527
sI619
I527
sI620
I526
sI621
I523
sI622
I523
sI623
I522
sI624
I518
sI625
I517
sI626
I515
sI627
I514
sI628
I513
sI629
I513
sI630
I512
sI631
I511
sI632
I508
sI633
I506
sI634
I504
sI635
I504
sI636
I504
sI637
I502
sI638
I501
sI639
I501
sI640
I498
sI641
I496
sI642
I495
sI643
I493
sI644
I492
sI645
I491
sI646
I491
sI647
I491
sI648
I489
sI649
I489
sI650
I485
sI651
I484
sI652
I484
sI653
I482
sI654
I481
sI655
I479
sI656
I477
sI657
I474
sI658
I473
sI659
I472
sI660
I471
sI661
I471
sI662
I471
sI663
I466
sI664
I466
sI665
I466
sI666
I466
sI667
I465
sI668
I464
sI669
I461
sI670
I459
sI671
I457
sI672
I457
sI673
I457
sI674
I453
sI675
I453
sI676
I452
sI677
I452
sI678
I452
sI679
I452
sI680
I451
sI681
I451
sI682
I448
sI683
I448
sI684
I446
sI685
I444
sI686
I439
sI687
I438
sI688
I436
sI689
I436
sI690
I436
sI691
I436
sI692
I436
sI693
I434
sI694
I433
sI695
I433
sI696
I432
sI697
I431
sI698
I430
sI699
I429
sI700
I429
sI701
I429
sI702
I428
sI703
I428
sI704
I427
sI705
I424
sI706
I424
sI707
I423
sI708
I423
sI709
I422
sI710
I421
sI711
I419
sI712
I419
sI713
I417
sI714
I416
sI715
I415
sI716
I413
sI717
I410
sI718
I409
sI719
I407
sI720
I404
sI721
I401
sI722
I400
sI723
I398
sI724
I398
sI725
I397
sI726
I396
sI727
I395
sI728
I394
sI729
I394
sI730
I394
sI731
I393
sI732
I392
sI733
I392
sI734
I391
sI735
I390
sI736
I390
sI737
I388
sI738
I388
sI739
I387
sI740
I386
sI741
I385
sI742
I384
sI743
I383
sI744
I382
sI745
I380
sI746
I379
sI747
I378
sI748
I378
sI749
I377
sI750
I377
sI751
I376
sI752
I374
sI753
I374
sI754
I373
sI755
I373
sI756
I370
sI757
I370
sI758
I369
sI759
I368
sI760
I368
sI761
I368
sI762
I368
sI763
I368
sI764
I367
sI765
I367
sI766
I366
sI767
I366
sI768
I365
sI769
I365
sI770
I363
sI771
I363
sI772
I363
sI773
I359
sI774
I359
sI775
I358
sI776
I358
sI777
I357
sI778
I356
sI779
I356
sI780
I355
sI781
I355
sI782
I355
sI783
I352
sI784
I351
sI785
I351
sI786
I349
sI787
I348
sI788
I348
sI789
I347
sI790
I347
sI791
I347
sI792
I344
sI793
I343
sI794
I343
sI795
I342
sI796
I342
sI797
I342
sI798
I342
sI799
I341
sI800
I340
sI801
I340
sI802
I340
sI803
I339
sI804
I338
sI805
I337
sI806
I336
sI807
I336
sI808
I335
sI809
I334
sI810
I334
sI811
I333
sI812
I332
sI813
I332
sI814
I331
sI815
I331
sI816
I330
sI817
I329
sI818
I328
sI819
I327
sI820
I327
sI821
I327
sI822
I327
sI823
I326
sI824
I324
sI825
I321
sI826
I321
sI827
I321
sI828
I321
sI829
I321
sI830
I320
sI831
I320
sI832
I320
sI833
I319
sI834
I319
sI835
I318
sI836
I317
sI837
I316
sI838
I315
sI839
I314
sI840
I314
sI841
I312
sI842
I312
sI843
I311
sI844
I311
sI845
I311
sI846
I310
sI847
I309
sI848
I309
sI849
I309
sI850
I309
sI851
I308
sI852
I308
sI853
I306
sI854
I305
sI855
I304
sI856
I304
sI857
I303
sI858
I302
sI859
I301
sI860
I301
sI861
I301
sI862
I300
sI863
I300
sI864
I298
sI865
I298
sI866
I298
sI867
I297
sI868
I297
sI869
I297
sI870
I296
sI871
I296
sI872
I296
sI873
I295
sI874
I295
sI875
I295
sI876
I295
sI877
I294
sI878
I294
sI879
I294
sI880
I294
sI881
I293
sI882
I293
sI883
I292
sI884
I292
sI885
I292
sI886
I292
sI887
I291
sI888
I290
sI889
I289
sI890
I289
sI891
I288
sI892
I288
sI893
I287
sI894
I287
sI895
I286
sI896
I286
sI897
I286
sI898
I285
sI899
I283
sI900
I283
sI901
I282
sI902
I282
sI903
I282
sI904
I282
sI905
I281
sI906
I281
sI907
I279
sI908
I279
sI909
I279
sI910
I278
sI911
I278
sI912
I277
sI913
I277
sI914
I275
sI915
I275
sI916
I274
sI917
I274
sI918
I272
sI919
I271
sI920
I270
sI921
I270
sI922
I268
sI923
I268
sI924
I268
sI925
I267
sI926
I267
sI927
I267
sI928
I265
sI929
I265
sI930
I264
sI931
I263
sI932
I263
sI933
I262
sI934
I261
sI935
I260
sI936
I260
sI937
I260
sI938
I259
sI939
I259
sI940
I259
sI941
I259
sI942
I258
sI943
I258
sI944
I257
sI945
I257
sI946
I257
sI947
I256
sI948
I256
sI949
I256
sI950
I256
sI951
I255
sI952
I255
sI953
I255
sI954
I255
sI955
I254
sI956
I254
sI957
I254
sI958
I253
sI959
I253
sI960
I252
sI961
I252
sI962
I252
sI963
I252
sI964
I252
sI965
I252
sI966
I251
sI967
I251
sI968
I251
sI969
I251
sI970
I250
sI971
I250
sI972
I250
sI973
I249
sI974
I248
sI975
I248
sI976
I248
sI977
I246
sI978
I245
sI979
I244
sI980
I244
sI981
I244
sI982
I244
sI983
I243
sI984
I243
sI985
I242
sI986
I242
sI987
I241
sI988
I241
sI989
I241
sI990
I240
sI991
I240
sI992
I240
sI993
I240
sI994
I240
sI995
I239
sI996
I238
sI997
I237
sI998
I237
sI999
I237
stp1003
.